ARM GAS  C:\Users\GJL~1.CYS\AppData\Local\Temp\cc7h6ugw.s 			page 1


   1              		.syntax unified
   2              		.cpu cortex-m0
   3              		.fpu softvfp
   4              		.eabi_attribute 20, 1
   5              		.eabi_attribute 21, 1
   6              		.eabi_attribute 23, 3
   7              		.eabi_attribute 24, 1
   8              		.eabi_attribute 25, 1
   9              		.eabi_attribute 26, 1
  10              		.eabi_attribute 30, 1
  11              		.eabi_attribute 34, 0
  12              		.eabi_attribute 18, 4
  13              		.thumb
  14              		.syntax unified
  15              		.file	"main.c"
  16              		.text
  17              	.Ltext0:
  18              		.cfi_sections	.debug_frame
  19              		.section	.text.RX_interrupt,"ax",%progbits
  20              		.align	2
  21              		.global	RX_interrupt
  22              		.code	16
  23              		.thumb_func
  24              		.type	RX_interrupt, %function
  25              	RX_interrupt:
  26              	.LFB37:
  27              		.file 1 "main.c"
   1:main.c        **** /* ========================================
   2:main.c        ****  *
   3:main.c        ****  * EX2_String
   4:main.c        ****  *
   5:main.c        ****  * A simple function to cycle the color table
   6:main.c        ****  * through the string.
   7:main.c        ****  *
   8:main.c        ****  * ========================================
   9:main.c        **** */
  10:main.c        **** #include "project.h"
  11:main.c        **** 
  12:main.c        **** typedef enum{
  13:main.c        ****     RX_WAITING,
  14:main.c        ****     RX_CMD_RCVD
  15:main.c        **** }RX_STATUS_T;
  16:main.c        **** 
  17:main.c        **** typedef struct{
  18:main.c        ****     uint8_t red;
  19:main.c        ****     uint8_t blue;
  20:main.c        ****     uint8_t green;
  21:main.c        ****     uint8_t none;
  22:main.c        **** }COLOR_STRUCT_T;
  23:main.c        **** 
  24:main.c        **** typedef union{
  25:main.c        ****     COLOR_STRUCT_T bytes;
  26:main.c        ****     uint32_t word;
  27:main.c        **** }COLOR_T;
  28:main.c        **** 
  29:main.c        **** //#define SLOW_BLEND_TEST
  30:main.c        **** 
ARM GAS  C:\Users\GJL~1.CYS\AppData\Local\Temp\cc7h6ugw.s 			page 2


  31:main.c        **** 
  32:main.c        **** #define RX_BUFFER_SIZE  64
  33:main.c        **** 
  34:main.c        **** #define NUM_LEDS_STRIP 144
  35:main.c        **** #define NUM_LEDS_100PERCENT 100
  36:main.c        **** 
  37:main.c        **** RX_STATUS_T rxStatus = RX_WAITING;
  38:main.c        **** uint8_t incomingbytes[RX_BUFFER_SIZE];
  39:main.c        **** uint8_t incomingCmd[RX_BUFFER_SIZE];
  40:main.c        **** 
  41:main.c        **** //extern uint32  StripLights_ledArray[StripLights_ROWS][StripLights_COLUMNS];
  42:main.c        **** 
  43:main.c        **** 
  44:main.c        **** void SlowColorBlend(uint32 delay, uint32 time);
  45:main.c        **** CY_ISR_PROTO(RX_interrupt);
  46:main.c        **** void readLEDcommand(void);
  47:main.c        **** 
  48:main.c        **** 
  49:main.c        **** int main(void)
  50:main.c        **** {
  51:main.c        ****     CyGlobalIntEnable; /* Enable global interrupts. */
  52:main.c        ****     StripLights_Start();
  53:main.c        ****     
  54:main.c        ****        
  55:main.c        ****     isr_UART_RX_StartEx(RX_interrupt);
  56:main.c        ****     UART_DEB_Start();       //debug serial start for development mode
  57:main.c        **** 
  58:main.c        **** 
  59:main.c        ****     /* Place your initialization/startup code here (e.g. MyInst_Start()) */
  60:main.c        **** 
  61:main.c        **** //    incomingCmd[0] = 'L';
  62:main.c        **** //    incomingCmd[1] = 0x30;
  63:main.c        **** //    incomingCmd[2] = 0x00;
  64:main.c        **** //    incomingCmd[3] = 0x00;
  65:main.c        **** //    incomingCmd[4] = 0xFF;
  66:main.c        **** //    incomingCmd[5] = 'R';
  67:main.c        **** //    incomingCmd[6] = 0x00;
  68:main.c        **** //    
  69:main.c        **** //    readLEDcommand();
  70:main.c        ****     
  71:main.c        ****     
  72:main.c        ****    #ifdef SLOW_BLEND_TEST
  73:main.c        ****         SlowColorBlend(5, 5);
  74:main.c        ****    #endif
  75:main.c        ****     
  76:main.c        ****     
  77:main.c        ****     while(1)
  78:main.c        ****     {
  79:main.c        ****         if(rxStatus == RX_CMD_RCVD)
  80:main.c        ****         {
  81:main.c        ****             readLEDcommand();
  82:main.c        ****         }
  83:main.c        ****         //SlowColorBlend(0, 10000);
  84:main.c        ****        while( StripLights_Ready() == 0);
  85:main.c        ****        StripLights_Trigger(1);
  86:main.c        ****        CyDelay(100);
  87:main.c        ****     }
ARM GAS  C:\Users\GJL~1.CYS\AppData\Local\Temp\cc7h6ugw.s 			page 3


  88:main.c        **** }
  89:main.c        **** 
  90:main.c        **** 
  91:main.c        **** void readLEDcommand(void)
  92:main.c        **** {
  93:main.c        ****     COLOR_T leftColor;
  94:main.c        ****     COLOR_T rightColor;
  95:main.c        ****     uint8_t index;
  96:main.c        ****     uint8_t level;
  97:main.c        ****     
  98:main.c        ****     rxStatus = RX_WAITING;
  99:main.c        ****     if(incomingCmd[0] == 'L' && incomingCmd[5] == 'R')
 100:main.c        ****     {
 101:main.c        ****         leftColor.bytes.none = 0x00;
 102:main.c        ****         leftColor.bytes.red = incomingCmd[2];
 103:main.c        ****         leftColor.bytes.green = incomingCmd[3];
 104:main.c        ****         leftColor.bytes.blue = incomingCmd[4];
 105:main.c        ****         
 106:main.c        ****         level = (incomingCmd[1] * NUM_LEDS_STRIP)/100;
 107:main.c        ****         
 108:main.c        ****         for(index = 0; index < NUM_LEDS_STRIP; index++)
 109:main.c        ****         {
 110:main.c        ****             //StripLights_ledArray[0][index] = leftColor;
 111:main.c        ****             if(index < level)
 112:main.c        ****             {
 113:main.c        ****                 StripLights_Pixel(index, 0, leftColor.word);
 114:main.c        ****             }
 115:main.c        ****             else
 116:main.c        ****             {
 117:main.c        ****                 StripLights_Pixel(index, 0, 0x00000000);
 118:main.c        ****             }
 119:main.c        ****         }
 120:main.c        **** 
 121:main.c        ****         rightColor.bytes.none = 0x00;
 122:main.c        ****         rightColor.bytes.red = incomingCmd[7];
 123:main.c        ****         rightColor.bytes.green = incomingCmd[8];
 124:main.c        ****         rightColor.bytes.blue = incomingCmd[9];
 125:main.c        ****                 
 126:main.c        ****         level = (incomingCmd[6] * NUM_LEDS_STRIP)/100;
 127:main.c        ****         for(index = 0; index < NUM_LEDS_STRIP; index++)
 128:main.c        ****         {
 129:main.c        ****             //StripLights_ledArray[0][index] = leftColor;
 130:main.c        ****             if(index < level)
 131:main.c        ****             {
 132:main.c        ****                 StripLights_Pixel(index, 1, rightColor.word);
 133:main.c        ****             }
 134:main.c        ****             else
 135:main.c        ****             {
 136:main.c        ****                 StripLights_Pixel(index, 1, 0x00000000);
 137:main.c        ****             }
 138:main.c        ****         }
 139:main.c        ****                         
 140:main.c        ****         StripLights_Trigger(1);        
 141:main.c        ****     }
 142:main.c        **** }
 143:main.c        **** 
 144:main.c        **** 
ARM GAS  C:\Users\GJL~1.CYS\AppData\Local\Temp\cc7h6ugw.s 			page 4


 145:main.c        **** 
 146:main.c        **** 
 147:main.c        **** //debug serial port receive interrupt
 148:main.c        **** CY_ISR(RX_interrupt)
 149:main.c        **** {    
  28              		.loc 1 149 0
  29              		.cfi_startproc
  30              		@ args = 0, pretend = 0, frame = 0
  31              		@ frame_needed = 0, uses_anonymous_args = 0
  32 0000 10B5     		push	{r4, lr}
  33              		.cfi_def_cfa_offset 8
  34              		.cfi_offset 4, -8
  35              		.cfi_offset 14, -4
 150:main.c        ****     static uint8 RXincomingptr = 0;
 151:main.c        ****     uint8 RXbyte;
 152:main.c        ****     uint32 mask;
 153:main.c        ****     uint32 cause = UART_DEB_GetRxInterruptSourceMasked();
  36              		.loc 1 153 0
  37 0002 144B     		ldr	r3, .L6
  38 0004 1B68     		ldr	r3, [r3]
  39              	.LVL0:
 154:main.c        ****     //cause = UART_DEB_GetInterruptCause();
 155:main.c        ****     
 156:main.c        ****     mask = UART_DEB_INTR_RX_OVERFLOW;
 157:main.c        ****     if(cause & mask)
  40              		.loc 1 157 0
  41 0006 9A06     		lsls	r2, r3, #26
  42 0008 02D5     		bpl	.L2
 158:main.c        ****     {
 159:main.c        ****         UART_DEB_ClearRxInterruptSource(UART_DEB_INTR_RX_OVERFLOW);
  43              		.loc 1 159 0
  44 000a 2021     		movs	r1, #32
  45 000c 124A     		ldr	r2, .L6+4
  46 000e 1160     		str	r1, [r2]
  47              	.L2:
  48              	.LVL1:
 160:main.c        ****         //UARTrxoverflow = UART_RX_FIFO_OVERFLOW;
 161:main.c        ****     }
 162:main.c        ****     
 163:main.c        ****     mask = UART_DEB_INTR_RX_NOT_EMPTY;
 164:main.c        ****     if(cause & mask)    
  49              		.loc 1 164 0
  50 0010 5B07     		lsls	r3, r3, #29
  51 0012 1DD5     		bpl	.L1
  52              	.LVL2:
 165:main.c        ****     {
 166:main.c        ****         RXbyte = UART_DEB_UartGetByte();
  53              		.loc 1 166 0
  54 0014 FFF7FEFF 		bl	UART_DEB_UartGetByte
  55              	.LVL3:
  56 0018 C0B2     		uxtb	r0, r0
  57              	.LVL4:
 167:main.c        ****         incomingbytes[RXincomingptr] = RXbyte;
  58              		.loc 1 167 0
  59 001a 104B     		ldr	r3, .L6+8
  60 001c 1A78     		ldrb	r2, [r3]
  61 001e 104B     		ldr	r3, .L6+12
ARM GAS  C:\Users\GJL~1.CYS\AppData\Local\Temp\cc7h6ugw.s 			page 5


  62 0020 9854     		strb	r0, [r3, r2]
 168:main.c        ****         if(RXbyte == 0x0D)
  63              		.loc 1 168 0
  64 0022 0D28     		cmp	r0, #13
  65 0024 09D1     		bne	.L4
 169:main.c        ****         {
 170:main.c        ****             rxStatus = RX_CMD_RCVD;
  66              		.loc 1 170 0
  67 0026 0D4C     		ldr	r4, .L6+8
  68 0028 0123     		movs	r3, #1
  69 002a 6370     		strb	r3, [r4, #1]
 171:main.c        ****             memcpy(incomingCmd, incomingbytes, RXincomingptr);
  70              		.loc 1 171 0
  71 002c 0C49     		ldr	r1, .L6+12
  72 002e 0D48     		ldr	r0, .L6+16
  73              	.LVL5:
  74 0030 FFF7FEFF 		bl	memcpy
  75              	.LVL6:
 172:main.c        ****             RXincomingptr = 0;
  76              		.loc 1 172 0
  77 0034 0023     		movs	r3, #0
  78 0036 2370     		strb	r3, [r4]
  79 0038 07E0     		b	.L5
  80              	.LVL7:
  81              	.L4:
 173:main.c        ****         }
 174:main.c        ****         else
 175:main.c        ****         {
 176:main.c        ****             RXincomingptr++;
  82              		.loc 1 176 0
  83 003a 0132     		adds	r2, r2, #1
  84 003c D2B2     		uxtb	r2, r2
  85 003e 074B     		ldr	r3, .L6+8
  86 0040 1A70     		strb	r2, [r3]
 177:main.c        ****             if(RXincomingptr == RX_BUFFER_SIZE) RXincomingptr = 0;
  87              		.loc 1 177 0
  88 0042 402A     		cmp	r2, #64
  89 0044 01D1     		bne	.L5
  90              		.loc 1 177 0 is_stmt 0 discriminator 1
  91 0046 0022     		movs	r2, #0
  92 0048 1A70     		strb	r2, [r3]
  93              	.LVL8:
  94              	.L5:
 178:main.c        ****         }
 179:main.c        ****         UART_DEB_ClearRxInterruptSource(UART_DEB_INTR_RX_NOT_EMPTY);
  95              		.loc 1 179 0 is_stmt 1
  96 004a 0422     		movs	r2, #4
  97 004c 024B     		ldr	r3, .L6+4
  98 004e 1A60     		str	r2, [r3]
  99              	.L1:
 180:main.c        ****     }
 181:main.c        ****     
 182:main.c        ****     //UART_DEB_ClearRxInterruptSource(UART_DEB_GetRxInterruptSource());
 183:main.c        **** }
 100              		.loc 1 183 0
 101              		@ sp needed
 102 0050 10BD     		pop	{r4, pc}
ARM GAS  C:\Users\GJL~1.CYS\AppData\Local\Temp\cc7h6ugw.s 			page 6


 103              	.L7:
 104 0052 C046     		.align	2
 105              	.L6:
 106 0054 CC0F2440 		.word	1076105164
 107 0058 C00F2440 		.word	1076105152
 108 005c 00000000 		.word	.LANCHOR0
 109 0060 00000000 		.word	incomingbytes
 110 0064 00000000 		.word	incomingCmd
 111              		.cfi_endproc
 112              	.LFE37:
 113              		.size	RX_interrupt, .-RX_interrupt
 114              		.global	__aeabi_idiv
 115              		.section	.text.readLEDcommand,"ax",%progbits
 116              		.align	2
 117              		.global	readLEDcommand
 118              		.code	16
 119              		.thumb_func
 120              		.type	readLEDcommand, %function
 121              	readLEDcommand:
 122              	.LFB36:
  92:main.c        ****     COLOR_T leftColor;
 123              		.loc 1 92 0
 124              		.cfi_startproc
 125              		@ args = 0, pretend = 0, frame = 0
 126              		@ frame_needed = 0, uses_anonymous_args = 0
 127 0000 70B5     		push	{r4, r5, r6, lr}
 128              		.cfi_def_cfa_offset 16
 129              		.cfi_offset 4, -16
 130              		.cfi_offset 5, -12
 131              		.cfi_offset 6, -8
 132              		.cfi_offset 14, -4
  98:main.c        ****     if(incomingCmd[0] == 'L' && incomingCmd[5] == 'R')
 133              		.loc 1 98 0
 134 0002 0022     		movs	r2, #0
 135 0004 294B     		ldr	r3, .L18
 136 0006 5A70     		strb	r2, [r3, #1]
  99:main.c        ****     {
 137              		.loc 1 99 0
 138 0008 294B     		ldr	r3, .L18+4
 139 000a 1B78     		ldrb	r3, [r3]
 140 000c 4C2B     		cmp	r3, #76
 141 000e 4CD1     		bne	.L8
  99:main.c        ****     {
 142              		.loc 1 99 0 is_stmt 0 discriminator 1
 143 0010 274B     		ldr	r3, .L18+4
 144 0012 5B79     		ldrb	r3, [r3, #5]
 145 0014 522B     		cmp	r3, #82
 146 0016 48D1     		bne	.L8
 102:main.c        ****         leftColor.bytes.green = incomingCmd[3];
 147              		.loc 1 102 0 is_stmt 1
 148 0018 254A     		ldr	r2, .L18+4
 103:main.c        ****         leftColor.bytes.blue = incomingCmd[4];
 149              		.loc 1 103 0
 150 001a D678     		ldrb	r6, [r2, #3]
 151 001c 3304     		lsls	r3, r6, #16
 152 001e 9678     		ldrb	r6, [r2, #2]
 104:main.c        ****         
ARM GAS  C:\Users\GJL~1.CYS\AppData\Local\Temp\cc7h6ugw.s 			page 7


 153              		.loc 1 104 0
 154 0020 1179     		ldrb	r1, [r2, #4]
 155 0022 0902     		lsls	r1, r1, #8
 156 0024 1E43     		orrs	r6, r3
 157 0026 0E43     		orrs	r6, r1
 158              	.LVL9:
 106:main.c        ****         
 159              		.loc 1 106 0
 160 0028 5378     		ldrb	r3, [r2, #1]
 161 002a D800     		lsls	r0, r3, #3
 162 002c C018     		adds	r0, r0, r3
 163 002e 0001     		lsls	r0, r0, #4
 164 0030 6421     		movs	r1, #100
 165 0032 FFF7FEFF 		bl	__aeabi_idiv
 166              	.LVL10:
 167 0036 C5B2     		uxtb	r5, r0
 168              	.LVL11:
 108:main.c        ****         {
 169              		.loc 1 108 0
 170 0038 0024     		movs	r4, #0
 171 003a 0EE0     		b	.L10
 172              	.LVL12:
 173              	.L13:
 111:main.c        ****             {
 174              		.loc 1 111 0
 175 003c AC42     		cmp	r4, r5
 176 003e 05D2     		bcs	.L11
 113:main.c        ****             }
 177              		.loc 1 113 0
 178 0040 3200     		movs	r2, r6
 179 0042 0021     		movs	r1, #0
 180 0044 2000     		movs	r0, r4
 181 0046 FFF7FEFF 		bl	StripLights_Pixel
 182              	.LVL13:
 183 004a 04E0     		b	.L12
 184              	.L11:
 117:main.c        ****             }
 185              		.loc 1 117 0
 186 004c 0022     		movs	r2, #0
 187 004e 0021     		movs	r1, #0
 188 0050 2000     		movs	r0, r4
 189 0052 FFF7FEFF 		bl	StripLights_Pixel
 190              	.LVL14:
 191              	.L12:
 108:main.c        ****         {
 192              		.loc 1 108 0 discriminator 2
 193 0056 0134     		adds	r4, r4, #1
 194              	.LVL15:
 195 0058 E4B2     		uxtb	r4, r4
 196              	.LVL16:
 197              	.L10:
 108:main.c        ****         {
 198              		.loc 1 108 0 is_stmt 0 discriminator 1
 199 005a 8F2C     		cmp	r4, #143
 200 005c EED9     		bls	.L13
 122:main.c        ****         rightColor.bytes.green = incomingCmd[8];
 201              		.loc 1 122 0 is_stmt 1
ARM GAS  C:\Users\GJL~1.CYS\AppData\Local\Temp\cc7h6ugw.s 			page 8


 202 005e 144A     		ldr	r2, .L18+4
 123:main.c        ****         rightColor.bytes.blue = incomingCmd[9];
 203              		.loc 1 123 0
 204 0060 167A     		ldrb	r6, [r2, #8]
 205              	.LVL17:
 206 0062 3304     		lsls	r3, r6, #16
 207 0064 D679     		ldrb	r6, [r2, #7]
 124:main.c        ****                 
 208              		.loc 1 124 0
 209 0066 517A     		ldrb	r1, [r2, #9]
 210 0068 0902     		lsls	r1, r1, #8
 211 006a 1E43     		orrs	r6, r3
 212 006c 0E43     		orrs	r6, r1
 213              	.LVL18:
 126:main.c        ****         for(index = 0; index < NUM_LEDS_STRIP; index++)
 214              		.loc 1 126 0
 215 006e 9379     		ldrb	r3, [r2, #6]
 216 0070 D800     		lsls	r0, r3, #3
 217 0072 C018     		adds	r0, r0, r3
 218 0074 0001     		lsls	r0, r0, #4
 219 0076 6421     		movs	r1, #100
 220 0078 FFF7FEFF 		bl	__aeabi_idiv
 221              	.LVL19:
 222 007c C5B2     		uxtb	r5, r0
 223              	.LVL20:
 127:main.c        ****         {
 224              		.loc 1 127 0
 225 007e 0024     		movs	r4, #0
 226 0080 0EE0     		b	.L14
 227              	.LVL21:
 228              	.L17:
 130:main.c        ****             {
 229              		.loc 1 130 0
 230 0082 AC42     		cmp	r4, r5
 231 0084 05D2     		bcs	.L15
 132:main.c        ****             }
 232              		.loc 1 132 0
 233 0086 3200     		movs	r2, r6
 234 0088 0121     		movs	r1, #1
 235 008a 2000     		movs	r0, r4
 236 008c FFF7FEFF 		bl	StripLights_Pixel
 237              	.LVL22:
 238 0090 04E0     		b	.L16
 239              	.L15:
 136:main.c        ****             }
 240              		.loc 1 136 0
 241 0092 0022     		movs	r2, #0
 242 0094 0121     		movs	r1, #1
 243 0096 2000     		movs	r0, r4
 244 0098 FFF7FEFF 		bl	StripLights_Pixel
 245              	.LVL23:
 246              	.L16:
 127:main.c        ****         {
 247              		.loc 1 127 0 discriminator 2
 248 009c 0134     		adds	r4, r4, #1
 249              	.LVL24:
 250 009e E4B2     		uxtb	r4, r4
ARM GAS  C:\Users\GJL~1.CYS\AppData\Local\Temp\cc7h6ugw.s 			page 9


 251              	.LVL25:
 252              	.L14:
 127:main.c        ****         {
 253              		.loc 1 127 0 is_stmt 0 discriminator 1
 254 00a0 8F2C     		cmp	r4, #143
 255 00a2 EED9     		bls	.L17
 140:main.c        ****     }
 256              		.loc 1 140 0 is_stmt 1
 257 00a4 0120     		movs	r0, #1
 258 00a6 FFF7FEFF 		bl	StripLights_Trigger
 259              	.LVL26:
 260              	.L8:
 142:main.c        **** 
 261              		.loc 1 142 0
 262              		@ sp needed
 263              	.LVL27:
 264 00aa 70BD     		pop	{r4, r5, r6, pc}
 265              	.L19:
 266              		.align	2
 267              	.L18:
 268 00ac 00000000 		.word	.LANCHOR0
 269 00b0 00000000 		.word	incomingCmd
 270              		.cfi_endproc
 271              	.LFE36:
 272              		.size	readLEDcommand, .-readLEDcommand
 273              		.section	.text.main,"ax",%progbits
 274              		.align	2
 275              		.global	main
 276              		.code	16
 277              		.thumb_func
 278              		.type	main, %function
 279              	main:
 280              	.LFB35:
  50:main.c        ****     CyGlobalIntEnable; /* Enable global interrupts. */
 281              		.loc 1 50 0
 282              		.cfi_startproc
 283              		@ Volatile: function does not return.
 284              		@ args = 0, pretend = 0, frame = 0
 285              		@ frame_needed = 0, uses_anonymous_args = 0
 286 0000 10B5     		push	{r4, lr}
 287              		.cfi_def_cfa_offset 8
 288              		.cfi_offset 4, -8
 289              		.cfi_offset 14, -4
  51:main.c        ****     StripLights_Start();
 290              		.loc 1 51 0
 291              		.syntax divided
 292              	@ 51 "main.c" 1
 293 0002 62B6     		CPSIE   i
 294              	@ 0 "" 2
  52:main.c        ****     
 295              		.loc 1 52 0
 296              		.thumb
 297              		.syntax unified
 298 0004 FFF7FEFF 		bl	StripLights_Start
 299              	.LVL28:
  55:main.c        ****     UART_DEB_Start();       //debug serial start for development mode
 300              		.loc 1 55 0
ARM GAS  C:\Users\GJL~1.CYS\AppData\Local\Temp\cc7h6ugw.s 			page 10


 301 0008 0A48     		ldr	r0, .L24
 302 000a FFF7FEFF 		bl	isr_UART_RX_StartEx
 303              	.LVL29:
  56:main.c        **** 
 304              		.loc 1 56 0
 305 000e FFF7FEFF 		bl	UART_DEB_Start
 306              	.LVL30:
 307              	.L23:
  79:main.c        ****         {
 308              		.loc 1 79 0
 309 0012 094B     		ldr	r3, .L24+4
 310 0014 5B78     		ldrb	r3, [r3, #1]
 311 0016 012B     		cmp	r3, #1
 312 0018 01D1     		bne	.L22
  81:main.c        ****         }
 313              		.loc 1 81 0
 314 001a FFF7FEFF 		bl	readLEDcommand
 315              	.LVL31:
 316              	.L22:
  84:main.c        ****        StripLights_Trigger(1);
 317              		.loc 1 84 0 discriminator 1
 318 001e FFF7FEFF 		bl	StripLights_Ready
 319              	.LVL32:
 320 0022 0028     		cmp	r0, #0
 321 0024 FBD0     		beq	.L22
  85:main.c        ****        CyDelay(100);
 322              		.loc 1 85 0
 323 0026 0120     		movs	r0, #1
 324 0028 FFF7FEFF 		bl	StripLights_Trigger
 325              	.LVL33:
  86:main.c        ****     }
 326              		.loc 1 86 0
 327 002c 6420     		movs	r0, #100
 328 002e FFF7FEFF 		bl	CyDelay
 329              	.LVL34:
  87:main.c        **** }
 330              		.loc 1 87 0
 331 0032 EEE7     		b	.L23
 332              	.L25:
 333              		.align	2
 334              	.L24:
 335 0034 00000000 		.word	RX_interrupt
 336 0038 00000000 		.word	.LANCHOR0
 337              		.cfi_endproc
 338              	.LFE35:
 339              		.size	main, .-main
 340              		.global	__aeabi_uidiv
 341              		.global	__aeabi_uidivmod
 342              		.section	.text.SlowColorBlend,"ax",%progbits
 343              		.align	2
 344              		.global	SlowColorBlend
 345              		.code	16
 346              		.thumb_func
 347              		.type	SlowColorBlend, %function
 348              	SlowColorBlend:
 349              	.LFB38:
 184:main.c        **** 
ARM GAS  C:\Users\GJL~1.CYS\AppData\Local\Temp\cc7h6ugw.s 			page 11


 185:main.c        **** 
 186:main.c        **** 
 187:main.c        **** 
 188:main.c        **** 
 189:main.c        **** /************************************************
 190:main.c        ****  *                    SlowColorBlend()
 191:main.c        ****  *
 192:main.c        ****  *  Slowly migate all the LEDs through the color
 193:main.c        ****  *  table.
 194:main.c        ****  *
 195:main.c        ****  ************************************************/
 196:main.c        **** void SlowColorBlend(uint32 delay, uint32 time)
 197:main.c        **** {
 350              		.loc 1 197 0
 351              		.cfi_startproc
 352              		@ args = 0, pretend = 0, frame = 8
 353              		@ frame_needed = 0, uses_anonymous_args = 0
 354              	.LVL35:
 355 0000 F0B5     		push	{r4, r5, r6, r7, lr}
 356              		.cfi_def_cfa_offset 20
 357              		.cfi_offset 4, -20
 358              		.cfi_offset 5, -16
 359              		.cfi_offset 6, -12
 360              		.cfi_offset 7, -8
 361              		.cfi_offset 14, -4
 362 0002 4746     		mov	r7, r8
 363 0004 80B4     		push	{r7}
 364              		.cfi_def_cfa_offset 24
 365              		.cfi_offset 8, -24
 366 0006 82B0     		sub	sp, sp, #8
 367              		.cfi_def_cfa_offset 32
 368 0008 0190     		str	r0, [sp, #4]
 369              	.LVL36:
 198:main.c        ****     uint32 timeCnt = 0; 
 199:main.c        ****     uint32 led = 0;
 200:main.c        ****     uint32 x = 0;
 201:main.c        ****     uint32 pct = 0;
 202:main.c        ****     uint32 fromColor, toColor, color;
 203:main.c        ****     extern const uint32 StripLights_CLUT[ ];
 204:main.c        **** 
 205:main.c        ****     StripLights_Dim(0); 
 370              		.loc 1 205 0
 371 000a 0020     		movs	r0, #0
 372              	.LVL37:
 373 000c FFF7FEFF 		bl	StripLights_Dim
 374              	.LVL38:
 200:main.c        ****     uint32 pct = 0;
 375              		.loc 1 200 0
 376 0010 0023     		movs	r3, #0
 377 0012 9846     		mov	r8, r3
 378              	.LVL39:
 379              	.L31:
 206:main.c        **** 
 207:main.c        ****     for(;;)
 208:main.c        ****     {   
 209:main.c        ****         while(1)
 210:main.c        ****         {
ARM GAS  C:\Users\GJL~1.CYS\AppData\Local\Temp\cc7h6ugw.s 			page 12


 211:main.c        ****            
 212:main.c        ****             for(pct = 0; pct < 100; pct += 4)
 380              		.loc 1 212 0
 381 0014 0023     		movs	r3, #0
 382 0016 0093     		str	r3, [sp]
 383 0018 2FE0     		b	.L27
 384              	.LVL40:
 385              	.L28:
 213:main.c        ****             {
 214:main.c        ****                 for(led = 0; led <= StripLights_MAX_X; led++)
 215:main.c        ****                 {
 216:main.c        ****  
 217:main.c        ****                     fromColor =  StripLights_CLUT[(x + 0 + ((led * StripLights_COLOR_WHEEL_SIZE)/St
 386              		.loc 1 217 0 discriminator 3
 387 001a 7B00     		lsls	r3, r7, #1
 388 001c DB19     		adds	r3, r3, r7
 389 001e D800     		lsls	r0, r3, #3
 390 0020 9021     		movs	r1, #144
 391 0022 4900     		lsls	r1, r1, #1
 392 0024 FFF7FEFF 		bl	__aeabi_uidiv
 393              	.LVL41:
 394 0028 4044     		add	r0, r0, r8
 395 002a 0400     		movs	r4, r0
 396 002c 1821     		movs	r1, #24
 397 002e FFF7FEFF 		bl	__aeabi_uidivmod
 398              	.LVL42:
 399 0032 154E     		ldr	r6, .L33
 400 0034 8900     		lsls	r1, r1, #2
 401 0036 8D59     		ldr	r5, [r1, r6]
 402              	.LVL43:
 218:main.c        ****                     toColor =  StripLights_CLUT[(x + 1 + ((led * StripLights_COLOR_WHEEL_SIZE)/Stri
 403              		.loc 1 218 0 discriminator 3
 404 0038 601C     		adds	r0, r4, #1
 405 003a 1821     		movs	r1, #24
 406 003c FFF7FEFF 		bl	__aeabi_uidivmod
 407              	.LVL44:
 408 0040 8900     		lsls	r1, r1, #2
 409 0042 8959     		ldr	r1, [r1, r6]
 410              	.LVL45:
 219:main.c        ****                     
 220:main.c        ****                     color = StripLights_RgbBlend(fromColor, toColor, pct);                  
 411              		.loc 1 220 0 discriminator 3
 412 0044 009A     		ldr	r2, [sp]
 413 0046 2800     		movs	r0, r5
 414 0048 FFF7FEFF 		bl	StripLights_RgbBlend
 415              	.LVL46:
 416 004c 0200     		movs	r2, r0
 417              	.LVL47:
 221:main.c        ****                     StripLights_Pixel(led, 0, color );
 418              		.loc 1 221 0 discriminator 3
 419 004e 0021     		movs	r1, #0
 420 0050 3800     		movs	r0, r7
 421              	.LVL48:
 422 0052 FFF7FEFF 		bl	StripLights_Pixel
 423              	.LVL49:
 214:main.c        ****                 {
 424              		.loc 1 214 0 discriminator 3
ARM GAS  C:\Users\GJL~1.CYS\AppData\Local\Temp\cc7h6ugw.s 			page 13


 425 0056 0137     		adds	r7, r7, #1
 426              	.LVL50:
 427 0058 00E0     		b	.L30
 428              	.LVL51:
 429              	.L32:
 430 005a 0027     		movs	r7, #0
 431              	.LVL52:
 432              	.L30:
 214:main.c        ****                 {
 433              		.loc 1 214 0 is_stmt 0 discriminator 1
 434 005c 8F2F     		cmp	r7, #143
 435 005e DCD9     		bls	.L28
 436              	.L29:
 222:main.c        ****                 }
 223:main.c        ****                 
 224:main.c        ****                  while( StripLights_Ready() == 0);
 437              		.loc 1 224 0 is_stmt 1 discriminator 1
 438 0060 FFF7FEFF 		bl	StripLights_Ready
 439              	.LVL53:
 440 0064 0028     		cmp	r0, #0
 441 0066 FBD0     		beq	.L29
 225:main.c        **** 	
 226:main.c        **** 	            StripLights_Trigger(1);
 442              		.loc 1 226 0 discriminator 2
 443 0068 0120     		movs	r0, #1
 444 006a FFF7FEFF 		bl	StripLights_Trigger
 445              	.LVL54:
 227:main.c        ****                 CyDelay(delay);
 446              		.loc 1 227 0 discriminator 2
 447 006e 0198     		ldr	r0, [sp, #4]
 448 0070 FFF7FEFF 		bl	CyDelay
 449              	.LVL55:
 212:main.c        ****             {
 450              		.loc 1 212 0 discriminator 2
 451 0074 009B     		ldr	r3, [sp]
 452 0076 0433     		adds	r3, r3, #4
 453 0078 0093     		str	r3, [sp]
 454              	.LVL56:
 455              	.L27:
 212:main.c        ****             {
 456              		.loc 1 212 0 is_stmt 0 discriminator 1
 457 007a 009B     		ldr	r3, [sp]
 458 007c 632B     		cmp	r3, #99
 459 007e ECD9     		bls	.L32
 228:main.c        **** 
 229:main.c        ****             }
 230:main.c        ****             x++;  // Advance through color wheel
 460              		.loc 1 230 0 is_stmt 1
 461 0080 0123     		movs	r3, #1
 462 0082 9C46     		mov	ip, r3
 463 0084 E044     		add	r8, r8, ip
 464              	.LVL57:
 231:main.c        ****         }
 465              		.loc 1 231 0
 466 0086 C5E7     		b	.L31
 467              	.L34:
 468              		.align	2
ARM GAS  C:\Users\GJL~1.CYS\AppData\Local\Temp\cc7h6ugw.s 			page 14


 469              	.L33:
 470 0088 00000000 		.word	StripLights_CLUT
 471              		.cfi_endproc
 472              	.LFE38:
 473              		.size	SlowColorBlend, .-SlowColorBlend
 474              		.comm	incomingCmd,64,4
 475              		.comm	incomingbytes,64,4
 476              		.global	rxStatus
 477              		.bss
 478              		.set	.LANCHOR0,. + 0
 479              		.type	RXincomingptr.5559, %object
 480              		.size	RXincomingptr.5559, 1
 481              	RXincomingptr.5559:
 482 0000 00       		.space	1
 483              		.type	rxStatus, %object
 484              		.size	rxStatus, 1
 485              	rxStatus:
 486 0001 00       		.space	1
 487              		.text
 488              	.Letext0:
 489              		.file 2 "c:\\program files (x86)\\cypress\\psoc creator\\4.2\\psoc creator\\import\\gnu\\arm\\5.4.
 490              		.file 3 "c:\\program files (x86)\\cypress\\psoc creator\\4.2\\psoc creator\\import\\gnu\\arm\\5.4.
 491              		.file 4 "Generated_Source\\PSoC4/cytypes.h"
 492              		.file 5 "Generated_Source\\PSoC4/UART_DEB_SPI_UART.h"
 493              		.file 6 "Generated_Source\\PSoC4/StripLights.h"
 494              		.file 7 "Generated_Source\\PSoC4/isr_UART_RX.h"
 495              		.file 8 "Generated_Source\\PSoC4/UART_DEB.h"
 496              		.file 9 "Generated_Source\\PSoC4/CyLib.h"